	.file	"guilib.c"
	.intel_syntax noprefix
# GNU C17 (Ubuntu 11.4.0-1ubuntu1~22.04) version 11.4.0 (x86_64-linux-gnu)
#	compiled by GNU C version 11.4.0, GMP version 6.2.1, MPFR version 4.1.0, MPC version 1.2.1, isl version isl-0.24-GMP

# GGC heuristics: --param ggc-min-expand=100 --param ggc-min-heapsize=131072
# options passed: -masm=intel -mtune=generic -march=x86-64 -g -g -ggdb3 -gdwarf-2 -O0 -fasynchronous-unwind-tables -fstack-protector-strong -fstack-clash-protection -fcf-protection
	.text
.Ltext0:
	.globl	init_gui
	.type	init_gui, @function
init_gui:
.LFB0:
	.file 1 "/home/jscha/dvp/cpumon/src/guilib.c"
	.loc 1 4 20
	.cfi_startproc
	endbr64	
	push	rbp	#
.LCFI0:
	.cfi_def_cfa_offset 16
	.cfi_offset 6, -16
	mov	rbp, rsp	#,
.LCFI1:
	.cfi_def_cfa_register 6
# /home/jscha/dvp/cpumon/src/guilib.c:5:     initscr();
	.loc 1 5 5
	call	initscr@PLT	#
# /home/jscha/dvp/cpumon/src/guilib.c:6:     cbreak();
	.loc 1 6 5
	call	cbreak@PLT	#
# /home/jscha/dvp/cpumon/src/guilib.c:7:     noecho();
	.loc 1 7 5
	call	noecho@PLT	#
# /home/jscha/dvp/cpumon/src/guilib.c:9:     nodelay(stdscr, TRUE);
	.loc 1 9 5
	mov	rax, QWORD PTR stdscr[rip]	# stdscr.0_1, stdscr
	mov	esi, 1	#,
	mov	rdi, rax	#, stdscr.0_1
	call	nodelay@PLT	#
# /home/jscha/dvp/cpumon/src/guilib.c:10:     scrollok(stdscr, TRUE);
	.loc 1 10 5
	mov	rax, QWORD PTR stdscr[rip]	# stdscr.1_2, stdscr
	mov	esi, 1	#,
	mov	rdi, rax	#, stdscr.1_2
	call	scrollok@PLT	#
# /home/jscha/dvp/cpumon/src/guilib.c:11:     use_default_colors();
	.loc 1 11 5
	call	use_default_colors@PLT	#
# /home/jscha/dvp/cpumon/src/guilib.c:12:     start_color();
	.loc 1 12 5
	call	start_color@PLT	#
# /home/jscha/dvp/cpumon/src/guilib.c:13:     init_pair(WHITE, COLOR_WHITE, -1);
	.loc 1 13 5
	mov	edx, -1	#,
	mov	esi, 7	#,
	mov	edi, 1	#,
	call	init_pair@PLT	#
# /home/jscha/dvp/cpumon/src/guilib.c:14:     init_pair(BLUE, COLOR_BLUE, -1);
	.loc 1 14 5
	mov	edx, -1	#,
	mov	esi, 4	#,
	mov	edi, 2	#,
	call	init_pair@PLT	#
# /home/jscha/dvp/cpumon/src/guilib.c:15:     init_pair(RED, COLOR_RED, -1);
	.loc 1 15 5
	mov	edx, -1	#,
	mov	esi, 1	#,
	mov	edi, 3	#,
	call	init_pair@PLT	#
# /home/jscha/dvp/cpumon/src/guilib.c:16:     init_pair(GREEN, COLOR_GREEN, -1);
	.loc 1 16 5
	mov	edx, -1	#,
	mov	esi, 2	#,
	mov	edi, 4	#,
	call	init_pair@PLT	#
# /home/jscha/dvp/cpumon/src/guilib.c:17: }
	.loc 1 17 1
	nop	
	pop	rbp	#
.LCFI2:
	.cfi_def_cfa 7, 8
	ret	
	.cfi_endproc
.LFE0:
	.size	init_gui, .-init_gui
	.globl	kbhit
	.type	kbhit, @function
kbhit:
.LFB1:
	.loc 1 20 1
	.cfi_startproc
	endbr64	
	push	rbp	#
.LCFI3:
	.cfi_def_cfa_offset 16
	.cfi_offset 6, -16
	mov	rbp, rsp	#,
.LCFI4:
	.cfi_def_cfa_register 6
	sub	rsp, 16	#,
# /home/jscha/dvp/cpumon/src/guilib.c:21:     int ch = 0;
	.loc 1 21 9
	mov	DWORD PTR -4[rbp], 0	# ch,
# /home/jscha/dvp/cpumon/src/guilib.c:22:     ch = getch();
	.loc 1 22 9
	mov	rax, QWORD PTR stdscr[rip]	# stdscr.2_1, stdscr
	mov	rdi, rax	#, stdscr.2_1
	call	wgetch@PLT	#
	mov	DWORD PTR -4[rbp], eax	# ch, tmp85
# /home/jscha/dvp/cpumon/src/guilib.c:24:     if (ch != ERR) {
	.loc 1 24 8
	cmp	DWORD PTR -4[rbp], -1	# ch,
	je	.L3	#,
# /home/jscha/dvp/cpumon/src/guilib.c:25:         return ch;
	.loc 1 25 16
	mov	eax, DWORD PTR -4[rbp]	# _2, ch
	jmp	.L4	#
.L3:
# /home/jscha/dvp/cpumon/src/guilib.c:27:         return 0;
	.loc 1 27 16
	mov	eax, 0	# _2,
.L4:
# /home/jscha/dvp/cpumon/src/guilib.c:29: }
	.loc 1 29 1
	leave	
.LCFI5:
	.cfi_def_cfa 7, 8
	ret	
	.cfi_endproc
.LFE1:
	.size	kbhit, .-kbhit
	.section	.rodata
	.align 8
.LC0:
	.string	"\tPkg Power: %.2f W, avg: %.2f W\n"
.LC1:
	.string	"#"
.LC2:
	.string	"\nRest of Pkg: %.2f W"
.LC3:
	.string	"  Cores: %.2f W"
.LC4:
	.string	"  GPU: %.2f W"
.LC5:
	.string	"\n"
	.text
	.globl	draw_power
	.type	draw_power, @function
draw_power:
.LFB2:
	.loc 1 31 45
	.cfi_startproc
	endbr64	
	push	rbp	#
.LCFI6:
	.cfi_def_cfa_offset 16
	.cfi_offset 6, -16
	mov	rbp, rsp	#,
.LCFI7:
	.cfi_def_cfa_register 6
	sub	rsp, 48	#,
	mov	QWORD PTR -40[rbp], rdi	# value, value
	movss	DWORD PTR -44[rbp], xmm0	# pkg_avg, pkg_avg
# /home/jscha/dvp/cpumon/src/guilib.c:33:     int value_count = 3;
	.loc 1 33 9
	mov	DWORD PTR -12[rbp], 3	# value_count,
# /home/jscha/dvp/cpumon/src/guilib.c:34:     int width = 48;                         // choose highly composite number
	.loc 1 34 9
	mov	DWORD PTR -8[rbp], 48	# width,
# /home/jscha/dvp/cpumon/src/guilib.c:36:     float total = value[0];
	.loc 1 36 11
	mov	rax, QWORD PTR -40[rbp]	# tmp115, value
	movss	xmm0, DWORD PTR [rax]	# tmp116, *value_42(D)
	movss	DWORD PTR -4[rbp], xmm0	# total, tmp116
# /home/jscha/dvp/cpumon/src/guilib.c:38:     printw("\tPkg Power: %.2f W, avg: %.2f W\n", value[0], pkg_avg);
	.loc 1 38 5
	pxor	xmm0, xmm0	# _1
	cvtss2sd	xmm0, DWORD PTR -44[rbp]	# _1, pkg_avg
# /home/jscha/dvp/cpumon/src/guilib.c:38:     printw("\tPkg Power: %.2f W, avg: %.2f W\n", value[0], pkg_avg);
	.loc 1 38 55
	mov	rax, QWORD PTR -40[rbp]	# tmp117, value
	movss	xmm1, DWORD PTR [rax]	# _2, *value_42(D)
# /home/jscha/dvp/cpumon/src/guilib.c:38:     printw("\tPkg Power: %.2f W, avg: %.2f W\n", value[0], pkg_avg);
	.loc 1 38 5
	pxor	xmm2, xmm2	# _3
	cvtss2sd	xmm2, xmm1	# _3, _2
	movq	rax, xmm2	# _3, _3
	movapd	xmm1, xmm0	#, _1
	movq	xmm0, rax	#, _3
	lea	rax, .LC0[rip]	# tmp118,
	mov	rdi, rax	#, tmp118
	mov	eax, 2	#,
	call	printw@PLT	#
# /home/jscha/dvp/cpumon/src/guilib.c:39:     value[0] = value[0] - value[1] - value[2];      // subtract cpu and uncore power from package power to get "rest of chip power"
	.loc 1 39 21
	mov	rax, QWORD PTR -40[rbp]	# tmp119, value
	movss	xmm0, DWORD PTR [rax]	# _4, *value_42(D)
# /home/jscha/dvp/cpumon/src/guilib.c:39:     value[0] = value[0] - value[1] - value[2];      // subtract cpu and uncore power from package power to get "rest of chip power"
	.loc 1 39 32
	mov	rax, QWORD PTR -40[rbp]	# tmp120, value
	add	rax, 4	# _5,
	movss	xmm1, DWORD PTR [rax]	# _6, *_5
# /home/jscha/dvp/cpumon/src/guilib.c:39:     value[0] = value[0] - value[1] - value[2];      // subtract cpu and uncore power from package power to get "rest of chip power"
	.loc 1 39 25
	subss	xmm0, xmm1	# _7, _6
# /home/jscha/dvp/cpumon/src/guilib.c:39:     value[0] = value[0] - value[1] - value[2];      // subtract cpu and uncore power from package power to get "rest of chip power"
	.loc 1 39 43
	mov	rax, QWORD PTR -40[rbp]	# tmp121, value
	add	rax, 8	# _8,
	movss	xmm1, DWORD PTR [rax]	# _9, *_8
# /home/jscha/dvp/cpumon/src/guilib.c:39:     value[0] = value[0] - value[1] - value[2];      // subtract cpu and uncore power from package power to get "rest of chip power"
	.loc 1 39 36
	subss	xmm0, xmm1	# _10, _9
# /home/jscha/dvp/cpumon/src/guilib.c:39:     value[0] = value[0] - value[1] - value[2];      // subtract cpu and uncore power from package power to get "rest of chip power"
	.loc 1 39 14
	mov	rax, QWORD PTR -40[rbp]	# tmp122, value
	movss	DWORD PTR [rax], xmm0	# *value_42(D), _10
.LBB2:
# /home/jscha/dvp/cpumon/src/guilib.c:40:     for (int i = 0; i < value_count; i++){
	.loc 1 40 14
	mov	DWORD PTR -20[rbp], 0	# i,
# /home/jscha/dvp/cpumon/src/guilib.c:40:     for (int i = 0; i < value_count; i++){
	.loc 1 40 5
	jmp	.L6	#
.L13:
# /home/jscha/dvp/cpumon/src/guilib.c:41:         switch (i) {
	.loc 1 41 9
	cmp	DWORD PTR -20[rbp], 2	# i,
	je	.L7	#,
	cmp	DWORD PTR -20[rbp], 2	# i,
	jg	.L8	#,
	cmp	DWORD PTR -20[rbp], 0	# i,
	je	.L9	#,
	cmp	DWORD PTR -20[rbp], 1	# i,
	je	.L10	#,
	jmp	.L8	#
.L9:
# /home/jscha/dvp/cpumon/src/guilib.c:42:             case 0: attron(COLOR_PAIR(BLUE)); break;
	.loc 1 42 20
	mov	rax, QWORD PTR stdscr[rip]	# stdscr.3_11, stdscr
	mov	edx, 0	#,
	mov	esi, 512	#,
	mov	rdi, rax	#, stdscr.3_11
	call	wattr_on@PLT	#
# /home/jscha/dvp/cpumon/src/guilib.c:42:             case 0: attron(COLOR_PAIR(BLUE)); break;
	.loc 1 42 46
	jmp	.L8	#
.L10:
# /home/jscha/dvp/cpumon/src/guilib.c:43:             case 1: attron(COLOR_PAIR(RED)); break;
	.loc 1 43 20
	mov	rax, QWORD PTR stdscr[rip]	# stdscr.4_12, stdscr
	mov	edx, 0	#,
	mov	esi, 768	#,
	mov	rdi, rax	#, stdscr.4_12
	call	wattr_on@PLT	#
# /home/jscha/dvp/cpumon/src/guilib.c:43:             case 1: attron(COLOR_PAIR(RED)); break;
	.loc 1 43 45
	jmp	.L8	#
.L7:
# /home/jscha/dvp/cpumon/src/guilib.c:44:             case 2: attron(COLOR_PAIR(GREEN)); break;
	.loc 1 44 20
	mov	rax, QWORD PTR stdscr[rip]	# stdscr.5_13, stdscr
	mov	edx, 0	#,
	mov	esi, 1024	#,
	mov	rdi, rax	#, stdscr.5_13
	call	wattr_on@PLT	#
# /home/jscha/dvp/cpumon/src/guilib.c:44:             case 2: attron(COLOR_PAIR(GREEN)); break;
	.loc 1 44 47
	nop	
.L8:
.LBB3:
# /home/jscha/dvp/cpumon/src/guilib.c:46:         for (int j = 0; j < (int)( (value[i] * width ) / total ); j++ ){
	.loc 1 46 18
	mov	DWORD PTR -16[rbp], 0	# j,
# /home/jscha/dvp/cpumon/src/guilib.c:46:         for (int j = 0; j < (int)( (value[i] * width ) / total ); j++ ){
	.loc 1 46 9
	jmp	.L11	#
.L12:
# /home/jscha/dvp/cpumon/src/guilib.c:47:             printw("#");
	.loc 1 47 13 discriminator 3
	lea	rax, .LC1[rip]	# tmp123,
	mov	rdi, rax	#, tmp123
	mov	eax, 0	#,
	call	printw@PLT	#
# /home/jscha/dvp/cpumon/src/guilib.c:46:         for (int j = 0; j < (int)( (value[i] * width ) / total ); j++ ){
	.loc 1 46 68 discriminator 3
	add	DWORD PTR -16[rbp], 1	# j,
.L11:
# /home/jscha/dvp/cpumon/src/guilib.c:46:         for (int j = 0; j < (int)( (value[i] * width ) / total ); j++ ){
	.loc 1 46 42 discriminator 1
	mov	eax, DWORD PTR -20[rbp]	# tmp124, i
	cdqe
	lea	rdx, 0[0+rax*4]	# _15,
	mov	rax, QWORD PTR -40[rbp]	# tmp125, value
	add	rax, rdx	# _16, _15
	movss	xmm1, DWORD PTR [rax]	# _17, *_16
# /home/jscha/dvp/cpumon/src/guilib.c:46:         for (int j = 0; j < (int)( (value[i] * width ) / total ); j++ ){
	.loc 1 46 46 discriminator 1
	pxor	xmm0, xmm0	# _18
	cvtsi2ss	xmm0, DWORD PTR -8[rbp]	# _18, width
	mulss	xmm0, xmm1	# _19, _17
# /home/jscha/dvp/cpumon/src/guilib.c:46:         for (int j = 0; j < (int)( (value[i] * width ) / total ); j++ ){
	.loc 1 46 56 discriminator 1
	divss	xmm0, DWORD PTR -4[rbp]	# _20, total
# /home/jscha/dvp/cpumon/src/guilib.c:46:         for (int j = 0; j < (int)( (value[i] * width ) / total ); j++ ){
	.loc 1 46 29 discriminator 1
	cvttss2si	eax, xmm0	# _21, _20
# /home/jscha/dvp/cpumon/src/guilib.c:46:         for (int j = 0; j < (int)( (value[i] * width ) / total ); j++ ){
	.loc 1 46 27 discriminator 1
	cmp	DWORD PTR -16[rbp], eax	# j, _21
	jl	.L12	#,
.LBE3:
# /home/jscha/dvp/cpumon/src/guilib.c:40:     for (int i = 0; i < value_count; i++){
	.loc 1 40 39 discriminator 2
	add	DWORD PTR -20[rbp], 1	# i,
.L6:
# /home/jscha/dvp/cpumon/src/guilib.c:40:     for (int i = 0; i < value_count; i++){
	.loc 1 40 23 discriminator 1
	mov	eax, DWORD PTR -20[rbp]	# tmp126, i
	cmp	eax, DWORD PTR -12[rbp]	# tmp126, value_count
	jl	.L13	#,
.LBE2:
# /home/jscha/dvp/cpumon/src/guilib.c:50:     attron(COLOR_PAIR(BLUE));
	.loc 1 50 4
	mov	rax, QWORD PTR stdscr[rip]	# stdscr.6_22, stdscr
	mov	edx, 0	#,
	mov	esi, 512	#,
	mov	rdi, rax	#, stdscr.6_22
	call	wattr_on@PLT	#
# /home/jscha/dvp/cpumon/src/guilib.c:51:     printw("\nRest of Pkg: %.2f W", value[0]);
	.loc 1 51 42
	mov	rax, QWORD PTR -40[rbp]	# tmp127, value
	movss	xmm0, DWORD PTR [rax]	# _23, *value_42(D)
# /home/jscha/dvp/cpumon/src/guilib.c:51:     printw("\nRest of Pkg: %.2f W", value[0]);
	.loc 1 51 5
	pxor	xmm3, xmm3	# _24
	cvtss2sd	xmm3, xmm0	# _24, _23
	movq	rax, xmm3	# _24, _24
	movq	xmm0, rax	#, _24
	lea	rax, .LC2[rip]	# tmp128,
	mov	rdi, rax	#, tmp128
	mov	eax, 1	#,
	call	printw@PLT	#
# /home/jscha/dvp/cpumon/src/guilib.c:52:     attron(COLOR_PAIR(RED));
	.loc 1 52 4
	mov	rax, QWORD PTR stdscr[rip]	# stdscr.7_25, stdscr
	mov	edx, 0	#,
	mov	esi, 768	#,
	mov	rdi, rax	#, stdscr.7_25
	call	wattr_on@PLT	#
# /home/jscha/dvp/cpumon/src/guilib.c:53:     printw("  Cores: %.2f W", value[1]);
	.loc 1 53 36
	mov	rax, QWORD PTR -40[rbp]	# tmp129, value
	add	rax, 4	# _26,
	movss	xmm0, DWORD PTR [rax]	# _27, *_26
# /home/jscha/dvp/cpumon/src/guilib.c:53:     printw("  Cores: %.2f W", value[1]);
	.loc 1 53 5
	pxor	xmm4, xmm4	# _28
	cvtss2sd	xmm4, xmm0	# _28, _27
	movq	rax, xmm4	# _28, _28
	movq	xmm0, rax	#, _28
	lea	rax, .LC3[rip]	# tmp130,
	mov	rdi, rax	#, tmp130
	mov	eax, 1	#,
	call	printw@PLT	#
# /home/jscha/dvp/cpumon/src/guilib.c:54:     attron(COLOR_PAIR(GREEN));
	.loc 1 54 4
	mov	rax, QWORD PTR stdscr[rip]	# stdscr.8_29, stdscr
	mov	edx, 0	#,
	mov	esi, 1024	#,
	mov	rdi, rax	#, stdscr.8_29
	call	wattr_on@PLT	#
# /home/jscha/dvp/cpumon/src/guilib.c:55:     printw("  GPU: %.2f W", value[2]);
	.loc 1 55 34
	mov	rax, QWORD PTR -40[rbp]	# tmp131, value
	add	rax, 8	# _30,
	movss	xmm0, DWORD PTR [rax]	# _31, *_30
# /home/jscha/dvp/cpumon/src/guilib.c:55:     printw("  GPU: %.2f W", value[2]);
	.loc 1 55 5
	pxor	xmm5, xmm5	# _32
	cvtss2sd	xmm5, xmm0	# _32, _31
	movq	rax, xmm5	# _32, _32
	movq	xmm0, rax	#, _32
	lea	rax, .LC4[rip]	# tmp132,
	mov	rdi, rax	#, tmp132
	mov	eax, 1	#,
	call	printw@PLT	#
# /home/jscha/dvp/cpumon/src/guilib.c:56:     attron(COLOR_PAIR(WHITE));
	.loc 1 56 4
	mov	rax, QWORD PTR stdscr[rip]	# stdscr.9_33, stdscr
	mov	edx, 0	#,
	mov	esi, 256	#,
	mov	rdi, rax	#, stdscr.9_33
	call	wattr_on@PLT	#
# /home/jscha/dvp/cpumon/src/guilib.c:57:     printw("\n");
	.loc 1 57 5
	lea	rax, .LC5[rip]	# tmp133,
	mov	rdi, rax	#, tmp133
	mov	eax, 0	#,
	call	printw@PLT	#
# /home/jscha/dvp/cpumon/src/guilib.c:59: }
	.loc 1 59 1
	nop	
	leave	
.LCFI8:
	.cfi_def_cfa 7, 8
	ret	
	.cfi_endproc
.LFE2:
	.size	draw_power, .-draw_power
.Letext0:
	.file 2 "/usr/include/curses.h"
	.section	.note.GNU-stack,"",@progbits
	.section	.note.gnu.property,"a"
	.align 8
	.long	1f - 0f
	.long	4f - 1f
	.long	5
0:
	.string	"GNU"
1:
	.align 8
	.long	0xc0000002
	.long	3f - 2f
2:
	.long	0x3
3:
	.align 8
4:
